target datalayout = "e-m:e-p270:32:32-p271:32:32-p272:64:64-i64:64-i128:128-f80:128-n8:16:32:64-S128"
target triple = "x86_64-pc-linux-gnu"

%class.symbol = type { ptr }
%"class.datatype::accessor" = type { %class.symbol, %class.obj_ref, i32, ptr }
%class.obj_ref = type { ptr, ptr }
%class.obj_ref.0 = type { ptr, ptr }
%class.ref_manager_wrapper = type { ptr }
%class.ref_vector_core = type { %class.ref_manager_wrapper, %class.ptr_vector }
%class.ptr_vector = type { %class.vector }
%class.vector = type { ptr }
%"class.datatype::def" = type { ptr, ptr, %class.symbol, i32, ptr, %class.ref_vector, %class.obj_ref, %class.ptr_vector.29 }
%class.ref_vector = type { %class.ref_vector_core }
%class.ptr_vector.29 = type { %class.vector.30 }
%class.vector.30 = type { ptr }
%"class.datatype::constructor" = type { %class.symbol, %class.symbol, %class.ptr_vector.44, ptr }
%class.ptr_vector.44 = type { %class.vector.45 }
%class.vector.45 = type { ptr }

; Function Attrs: mustprogress nounwind uwtable
define linkonce_odr hidden noundef nonnull align 8 dereferenceable(80) ptr @_ZNK8datatype11constructor7get_defEv(ptr noundef nonnull align 8 dereferenceable(32) %0) #5 comdat align 2 {
  %2 = alloca ptr, align 8
  store ptr %0, ptr %2, align 8, !tbaa !51
  %3 = load ptr, ptr %2, align 8
  %4 = getelementptr inbounds nuw %"class.datatype::constructor", ptr %3, i32 0, i32 3
  %5 = load ptr, ptr %4, align 8, !tbaa !65
  ret ptr %5
}

; Function Attrs: mustprogress nounwind uwtable
define linkonce_odr hidden noundef nonnull align 8 dereferenceable(24) ptr @_ZNK8datatype3def1uEv(ptr noundef nonnull align 8 dereferenceable(80) %0) #5 comdat align 2 {
  %2 = alloca ptr, align 8
  store ptr %0, ptr %2, align 8, !tbaa !31
  %3 = load ptr, ptr %2, align 8
  %4 = getelementptr inbounds nuw %"class.datatype::def", ptr %3, i32 0, i32 1
  %5 = load ptr, ptr %4, align 8, !tbaa !59
  ret ptr %5
}

; Function Attrs: mustprogress uwtable
define hidden noundef nonnull align 8 dereferenceable(80) ptr @_ZNK8datatype8accessor7get_defEv(ptr noundef nonnull align 8 dereferenceable(40) %0) #4 align 2 {
  %2 = alloca ptr, align 8
  store ptr %0, ptr %2, align 8, !tbaa !3
  %3 = load ptr, ptr %2, align 8
  %4 = getelementptr inbounds nuw %"class.datatype::accessor", ptr %3, i32 0, i32 3
  %5 = load ptr, ptr %4, align 8, !tbaa !30
  %6 = call noundef nonnull align 8 dereferenceable(80) ptr @_ZNK8datatype11constructor7get_defEv(ptr noundef nonnull align 8 dereferenceable(32) %5)
  ret ptr %6
}

; Function Attrs: mustprogress uwtable
define hidden void @_ZNK8datatype8accessor11instantiateEP4sort(ptr dead_on_unwind noalias writable sret(%class.obj_ref.0) align 8 %0, ptr noundef nonnull align 8 dereferenceable(40) %1, ptr noundef %2) #4 align 2 personality ptr @__gxx_personality_v0 {
  %4 = alloca ptr, align 8
  %5 = alloca ptr, align 8
  %6 = alloca ptr, align 8
  %7 = alloca %class.ref_vector, align 8
  %8 = alloca ptr, align 8
  %9 = alloca i32, align 4
  store ptr %0, ptr %4, align 8
  store ptr %1, ptr %5, align 8, !tbaa !3
  store ptr %2, ptr %6, align 8, !tbaa !23
  %10 = load ptr, ptr %5, align 8
  call void @llvm.lifetime.start.p0(i64 16, ptr %7) #3
  %11 = call noundef nonnull align 8 dereferenceable(80) ptr @_ZNK8datatype8accessor7get_defEv(ptr noundef nonnull align 8 dereferenceable(40) %10)
  %12 = call noundef nonnull align 8 dereferenceable(24) ptr @_ZNK8datatype3def1uEv(ptr noundef nonnull align 8 dereferenceable(80) %11)
  %13 = load ptr, ptr %6, align 8, !tbaa !23
  call void @_ZNK8datatype4util15datatype_paramsEP4sort(ptr dead_on_unwind writable sret(%class.ref_vector) align 8 %7, ptr noundef nonnull align 8 dereferenceable(24) %12, ptr noundef %13)
  invoke void @_ZNK8datatype8accessor11instantiateERK10ref_vectorI4sort11ast_managerE(ptr dead_on_unwind writable sret(%class.obj_ref.0) align 8 %0, ptr noundef nonnull align 8 dereferenceable(40) %10, ptr noundef nonnull align 8 dereferenceable(16) %7)
          to label %14 unwind label %15

14:                                               ; preds = %3
  call void @_ZN15ref_vector_coreI4sort19ref_manager_wrapperIS0_11ast_managerEED2Ev(ptr noundef nonnull align 8 dereferenceable(16) %7) #3
  call void @llvm.lifetime.end.p0(i64 16, ptr %7) #3
  ret void

15:                                               ; preds = %3
  %16 = landingpad { ptr, i32 }
          cleanup
  %17 = extractvalue { ptr, i32 } %16, 0
  store ptr %17, ptr %8, align 8
  %18 = extractvalue { ptr, i32 } %16, 1
  store i32 %18, ptr %9, align 4
  call void @_ZN15ref_vector_coreI4sort19ref_manager_wrapperIS0_11ast_managerEED2Ev(ptr noundef nonnull align 8 dereferenceable(16) %7) #3
  call void @llvm.lifetime.end.p0(i64 16, ptr %7) #3
  br label %19

19:                                               ; preds = %15
  %20 = load ptr, ptr %8, align 8
  %21 = load i32, ptr %9, align 4
  %22 = insertvalue { ptr, i32 } poison, ptr %20, 0
  %23 = insertvalue { ptr, i32 } %22, i32 %21, 1
  resume { ptr, i32 } %23
}