; Function Attrs: mustprogress uwtable
define hidden void @_ZNK8datatype8accessor11instantiateEP4sort(ptr dead_on_unwind noalias writable writeonly sret(%class.obj_ref.0) align 8 captures(none) %0, ptr noundef nonnull readonly align 8 captures(none) dereferenceable(40) %1, ptr noundef readonly captures(none) %2) local_unnamed_addr #4 align 2 personality ptr @__gxx_personality_v0 {
  %4 = alloca %class.ref_vector, align 8
  call void @llvm.lifetime.start.p0(i64 16, ptr nonnull %4) #28
  %5 = getelementptr inbounds nuw i8, ptr %1, i64 32
  %6 = load ptr, ptr %5, align 8, !tbaa !26
  %7 = getelementptr inbounds nuw i8, ptr %6, i64 24
  %8 = load ptr, ptr %7, align 8, !tbaa !27
  %9 = getelementptr inbounds nuw i8, ptr %8, i64 8
  %10 = load ptr, ptr %9, align 8, !tbaa !37
  call void @_ZNK8datatype4util15datatype_paramsEP4sort(ptr dead_on_unwind nonnull writable sret(%class.ref_vector) align 8 %4, ptr noundef nonnull align 8 dereferenceable(24) %10, ptr noundef %2)
  invoke void @_ZNK8datatype8accessor11instantiateERK10ref_vectorI4sort11ast_managerE(ptr dead_on_unwind writable sret(%class.obj_ref.0) align 8 %0, ptr noundef nonnull align 8 dereferenceable(40) %1, ptr noundef nonnull align 8 dereferenceable(16) %4)
          to label %11 unwind label %37

11:                                               ; preds = %3
  %12 = getelementptr inbounds nuw i8, ptr %4, i64 8
  %13 = load ptr, ptr %12, align 8, !tbaa !16
  %14 = icmp eq ptr %13, null
  br i1 %14, label %_ZN15ref_vector_coreI4sort19ref_manager_wrapperIS0_11ast_managerEED2Ev.exit, label %_ZNK6vectorIP4sortLb0EjE4sizeEv.exit.i

_ZNK6vectorIP4sortLb0EjE4sizeEv.exit.i:           ; preds = %11
  %15 = getelementptr inbounds i8, ptr %13, i64 -4
  %16 = load i32, ptr %15, align 4, !tbaa !25
  %17 = zext i32 %16 to i64
  %18 = getelementptr inbounds nuw ptr, ptr %13, i64 %17
  %.not.i = icmp eq i32 %16, 0
  br i1 %.not.i, label %_ZN15ref_vector_coreI4sort19ref_manager_wrapperIS0_11ast_managerEE13dec_range_refEPKPS0_S7_.exit.thread4.i, label %.lr.ph.i.i

.lr.ph.i.i:                                       ; preds = %_ZNK6vectorIP4sortLb0EjE4sizeEv.exit.i, %_ZN15ref_vector_coreI4sort19ref_manager_wrapperIS0_11ast_managerEE7dec_refEPS0_.exit.i.i
  %.06.i.i = phi ptr [ %27, %_ZN15ref_vector_coreI4sort19ref_manager_wrapperIS0_11ast_managerEE7dec_refEPS0_.exit.i.i ], [ %13, %_ZNK6vectorIP4sortLb0EjE4sizeEv.exit.i ]
  %19 = load ptr, ptr %.06.i.i, align 8, !tbaa !20
  %20 = load ptr, ptr %4, align 8, !tbaa !23
  %.not.i.i.i.i.i = icmp eq ptr %19, null
  br i1 %.not.i.i.i.i.i, label %_ZN15ref_vector_coreI4sort19ref_manager_wrapperIS0_11ast_managerEE7dec_refEPS0_.exit.i.i, label %21

21:                                               ; preds = %.lr.ph.i.i
  %22 = getelementptr inbounds nuw i8, ptr %19, i64 8
  %23 = load i32, ptr %22, align 4, !tbaa !21
  %24 = add i32 %23, -1
  store i32 %24, ptr %22, align 4, !tbaa !21
  %25 = icmp eq i32 %24, 0
  br i1 %25, label %26, label %_ZN15ref_vector_coreI4sort19ref_manager_wrapperIS0_11ast_managerEE7dec_refEPS0_.exit.i.i

26:                                               ; preds = %21
  invoke void @_ZN11ast_manager11delete_nodeEP3ast(ptr noundef nonnull align 8 dereferenceable(976) %20, ptr noundef nonnull %19)
          to label %_ZN15ref_vector_coreI4sort19ref_manager_wrapperIS0_11ast_managerEE7dec_refEPS0_.exit.i.i unwind label %34

_ZN15ref_vector_coreI4sort19ref_manager_wrapperIS0_11ast_managerEE7dec_refEPS0_.exit.i.i: ; preds = %26, %21, %.lr.ph.i.i
  %27 = getelementptr inbounds nuw i8, ptr %.06.i.i, i64 8
  %28 = icmp ult ptr %27, %18
  br i1 %28, label %.lr.ph.i.i, label %_ZN15ref_vector_coreI4sort19ref_manager_wrapperIS0_11ast_managerEE13dec_range_refEPKPS0_S7_.exit.i, !llvm.loop !64

_ZN15ref_vector_coreI4sort19ref_manager_wrapperIS0_11ast_managerEE13dec_range_refEPKPS0_S7_.exit.i: ; preds = %_ZN15ref_vector_coreI4sort19ref_manager_wrapperIS0_11ast_managerEE7dec_refEPS0_.exit.i.i
  %.pre.i = load ptr, ptr %12, align 8, !tbaa !16
  %.not.i.i.i = icmp eq ptr %.pre.i, null
  br i1 %.not.i.i.i, label %_ZN15ref_vector_coreI4sort19ref_manager_wrapperIS0_11ast_managerEED2Ev.exit, label %_ZN15ref_vector_coreI4sort19ref_manager_wrapperIS0_11ast_managerEE13dec_range_refEPKPS0_S7_.exit.thread4.i

_ZN15ref_vector_coreI4sort19ref_manager_wrapperIS0_11ast_managerEE13dec_range_refEPKPS0_S7_.exit.thread4.i: ; preds = %_ZN15ref_vector_coreI4sort19ref_manager_wrapperIS0_11ast_managerEE13dec_range_refEPKPS0_S7_.exit.i, %_ZNK6vectorIP4sortLb0EjE4sizeEv.exit.i
  %29 = phi ptr [ %.pre.i, %_ZN15ref_vector_coreI4sort19ref_manager_wrapperIS0_11ast_managerEE13dec_range_refEPKPS0_S7_.exit.i ], [ %13, %_ZNK6vectorIP4sortLb0EjE4sizeEv.exit.i ]
  %30 = getelementptr inbounds i8, ptr %29, i64 -8
  invoke void @_ZN6memory10deallocateEPv(ptr noundef nonnull %30)
          to label %_ZN15ref_vector_coreI4sort19ref_manager_wrapperIS0_11ast_managerEED2Ev.exit unwind label %31

31:                                               ; preds = %_ZN15ref_vector_coreI4sort19ref_manager_wrapperIS0_11ast_managerEE13dec_range_refEPKPS0_S7_.exit.thread4.i
  %32 = landingpad { ptr, i32 }
          catch ptr null
  %33 = extractvalue { ptr, i32 } %32, 0
  call void @__clang_call_terminate(ptr %33) #29
  unreachable

34:                                               ; preds = %26
  %35 = landingpad { ptr, i32 }
          catch ptr null
  %36 = extractvalue { ptr, i32 } %35, 0
  call void @__clang_call_terminate(ptr %36) #29
  unreachable

_ZN15ref_vector_coreI4sort19ref_manager_wrapperIS0_11ast_managerEED2Ev.exit: ; preds = %11, %_ZN15ref_vector_coreI4sort19ref_manager_wrapperIS0_11ast_managerEE13dec_range_refEPKPS0_S7_.exit.i, %_ZN15ref_vector_coreI4sort19ref_manager_wrapperIS0_11ast_managerEE13dec_range_refEPKPS0_S7_.exit.thread4.i
  call void @llvm.lifetime.end.p0(i64 16, ptr nonnull %4) #28
  ret void

37:                                               ; preds = %3
  %38 = landingpad { ptr, i32 }
          cleanup
  call void @_ZN15ref_vector_coreI4sort19ref_manager_wrapperIS0_11ast_managerEED2Ev(ptr noundef nonnull align 8 dereferenceable(16) %4) #28
  call void @llvm.lifetime.end.p0(i64 16, ptr nonnull %4) #28
  resume { ptr, i32 } %38
}